; Function Attrs: mustprogress nounwind uwtable
define hidden void @_ZN13TemplateTable6faloadEv() local_unnamed_addr #0 align 2 {
  %1 = alloca %class.Address, align 16
  tail call void @_ZN13TemplateTable10transitionE8TosStateS0_(i32 noundef 4, i32 noundef 6) #8
  %2 = load ptr, ptr @_ZN13TemplateTable5_masmE, align 8
  %3 = load i8, ptr @PrintInterpreter, align 1
  %4 = trunc i8 %3 to i1
  br i1 %4, label %5, label %_ZN13TemplateTable11index_checkE8RegisterS0_.exit

5:                                                ; preds = %0
  tail call void @_ZN12Disassembler5_hookEPKciP14MacroAssembler(ptr noundef nonnull @.str, i32 noundef 758, ptr noundef %2) #8
  br label %_ZN13TemplateTable11index_checkE8RegisterS0_.exit

_ZN13TemplateTable11index_checkE8RegisterS0_.exit: ; preds = %0, %5
  tail call void @_ZN25InterpreterMacroAssembler7pop_ptrE8Register(ptr noundef nonnull align 8 dereferenceable(48) %2, i32 2) #8
  tail call void @_ZN13TemplateTable23index_check_without_popE8RegisterS0_(i32 2, i32 0)
  %6 = load ptr, ptr @_ZN13TemplateTable5_masmE, align 8
  %7 = load i8, ptr @PrintInterpreter, align 1
  %8 = trunc i8 %7 to i1
  br i1 %8, label %9, label %_ZN12Disassembler4hookI25InterpreterMacroAssemblerEEPT_PKciS3_.exit

9:                                                ; preds = %_ZN13TemplateTable11index_checkE8RegisterS0_.exit
  tail call void @_ZN12Disassembler5_hookEPKciP14MacroAssembler(ptr noundef nonnull @.str, i32 noundef 812, ptr noundef %6) #8
  br label %_ZN12Disassembler4hookI25InterpreterMacroAssemblerEEPT_PKciS3_.exit

_ZN12Disassembler4hookI25InterpreterMacroAssemblerEEPT_PKciS3_.exit: ; preds = %_ZN13TemplateTable11index_checkE8RegisterS0_.exit, %9
  %10 = load i8, ptr @UseCompressedClassPointers, align 1
  %11 = trunc i8 %10 to i1
  %12 = select i1 %11, i32 16, i32 20
  store <4 x i32> <i32 2, i32 0, i32 -1, i32 2>, ptr %1, align 16
  %13 = getelementptr inbounds i8, ptr %1, i64 16
  store i32 %12, ptr %13, align 16
  %14 = getelementptr inbounds i8, ptr %1, i64 20
  store i8 0, ptr %14, align 4
  %15 = getelementptr inbounds i8, ptr %1, i64 24
  store ptr getelementptr inbounds inrange(-16, 72) (i8, ptr @_ZTV10Relocation, i64 16), ptr %15, align 8
  %16 = getelementptr inbounds i8, ptr %1, i64 32
  store ptr null, ptr %16, align 16
  %17 = getelementptr inbounds i8, ptr %1, i64 40
  store i32 0, ptr %17, align 8
  call void @_ZN14MacroAssembler14access_load_atE9BasicTypem8Register7AddressS1_S1_(ptr noundef nonnull align 8 dereferenceable(40) %6, i8 noundef zeroext 6, i64 noundef 2359296, i32 -1, ptr noundef nonnull %1, i32 -1, i32 -1) #8
  ret void
}